target datalayout = "e-m:e-p270:32:32-p271:32:32-p272:64:64-i64:64-i128:128-f80:128-n8:16:32:64-S128"
target triple = "x86_64-pc-linux-gnu"

%struct._zend_executor_globals = type { %struct._zval_struct, %struct._zval_struct, [32 x ptr], ptr, ptr, %struct._zend_array, %struct._zend_array, ptr, i32, i32, ptr, ptr, ptr, ptr, ptr, ptr, i64, ptr, ptr, i32, i32, i64, i32, i32, i32, i8, i8, %struct.zend_atomic_bool_s, %struct.zend_atomic_bool_s, ptr, i64, ptr, ptr, %struct._zend_array, %struct._zend_array, i32, i8, %struct._zval_struct, %struct._zval_struct, %struct._zend_stack, %struct._zend_stack, %struct._zend_stack, ptr, i32, i32, i64, ptr, ptr, ptr, %struct._zend_objects_store, ptr, ptr, ptr, [3 x %struct._zend_op], ptr, i8, i8, i64, i32, i32, ptr, [16 x %struct._HashTableIterator], ptr, %union._zend_function, %struct._zend_op, %struct._zend_array, i64, %struct.zend_get_gc_buffer, ptr, ptr, ptr, i64, i8, i32, ptr, ptr, i64, %struct._zend_call_stack, i64, i64, [6 x ptr] }
%struct.zend_atomic_bool_s = type { i8 }
%struct._zval_struct = type { %union._zend_value, %union.anon, %union.anon.2 }
%union._zend_value = type { i64 }
%union.anon = type { i32 }
%union.anon.2 = type { i32 }
%struct._zend_stack = type { i32, i32, i32, ptr }
%struct._zend_objects_store = type { ptr, i32, i32, i32 }
%struct._HashTableIterator = type { ptr, i32, i32 }
%union._zend_function = type { %struct._zend_op_array }
%struct._zend_op_array = type { i8, [3 x i8], i32, ptr, ptr, ptr, i32, i32, ptr, ptr, ptr, ptr, i32, i32, i32, i32, ptr, ptr, ptr, ptr, ptr, i32, i32, ptr, ptr, ptr, i32, i32, i32, i32, ptr, ptr, [6 x ptr] }
%struct._zend_op = type { ptr, %union._znode_op, %union._znode_op, %union._znode_op, i32, i32, i8, i8, i8, i8 }
%union._znode_op = type { i32 }
%struct._zend_array = type { %struct._zend_refcounted_h, %union.anon.4, i32, %union.anon.6, i32, i32, i32, i32, i64, ptr }
%struct._zend_refcounted_h = type { i32, %union.anon.3 }
%union.anon.3 = type { i32 }
%union.anon.4 = type { i32 }
%union.anon.6 = type { ptr }
%struct.zend_get_gc_buffer = type { ptr, ptr, ptr }
%struct._zend_call_stack = type { ptr, i64 }
%struct._zend_execute_data = type { ptr, ptr, ptr, ptr, %struct._zval_struct, ptr, ptr, ptr, ptr }
%struct.anon.0 = type { i8, i8, %union.anon.1 }
%union.anon.1 = type { i16 }
%struct._zend_reference = type { %struct._zend_refcounted_h, %struct._zval_struct, %union.zend_property_info_source_list }
%union.zend_property_info_source_list = type { ptr }
%struct._zend_vm_stack = type { ptr, ptr, ptr }

@executor_globals = external global %struct._zend_executor_globals, align 8

; Function Attrs: nounwind uwtable
define hidden i32 @zend_jit_leave_nested_func_helper(i32 noundef %0, ptr noundef %1) #0 {
  %3 = alloca ptr, align 8
  %4 = alloca ptr, align 8
  %5 = alloca ptr, align 8
  %6 = alloca ptr, align 8
  %7 = alloca ptr, align 8
  %8 = alloca ptr, align 8
  %9 = alloca ptr, align 8
  %10 = alloca i32, align 4
  %11 = alloca ptr, align 8
  %12 = alloca ptr, align 8
  %13 = alloca ptr, align 8
  %14 = alloca ptr, align 8
  %15 = alloca ptr, align 8
  %16 = alloca i32, align 4
  %17 = alloca ptr, align 8
  %18 = alloca i32, align 4
  %19 = alloca ptr, align 8
  %20 = alloca i32, align 4
  %21 = alloca i32, align 4
  %22 = alloca ptr, align 8
  %23 = alloca ptr, align 8
  %24 = alloca ptr, align 8
  store i32 %0, ptr %21, align 4
  store ptr %1, ptr %22, align 8
  %25 = load i32, ptr %21, align 4
  %26 = and i32 %25, 1048576
  %27 = icmp ne i32 %26, 0
  %28 = xor i1 %27, true
  %29 = xor i1 %28, true
  %30 = zext i1 %29 to i32
  %31 = sext i32 %30 to i64
  %32 = icmp ne i64 %31, 0
  br i1 %32, label %33, label %37

33:                                               ; preds = %2
  %34 = load ptr, ptr %22, align 8
  %35 = getelementptr inbounds %struct._zend_execute_data, ptr %34, i32 0, i32 6
  %36 = load ptr, ptr %35, align 8
  call void @zend_clean_and_cache_symbol_table(ptr noundef %36)
  br label %37

37:                                               ; preds = %33, %2
  %38 = load i32, ptr %21, align 4
  %39 = load ptr, ptr %22, align 8
  store i32 %38, ptr %16, align 4
  store ptr %39, ptr %17, align 8
  %40 = load i32, ptr %16, align 4
  %41 = and i32 %40, 524288
  %42 = icmp ne i32 %41, 0
  br i1 %42, label %43, label %127

43:                                               ; preds = %37
  %44 = load ptr, ptr %17, align 8
  %45 = getelementptr inbounds %struct._zend_execute_data, ptr %44, i32 0, i32 4
  %46 = getelementptr inbounds %struct._zval_struct, ptr %45, i32 0, i32 2
  %47 = load i32, ptr %46, align 4
  %48 = load ptr, ptr %17, align 8
  %49 = getelementptr inbounds %struct._zend_execute_data, ptr %48, i32 0, i32 3
  %50 = load ptr, ptr %49, align 8
  %51 = getelementptr inbounds %struct._zend_op_array, ptr %50, i32 0, i32 6
  %52 = load i32, ptr %51, align 8
  %53 = sub i32 %47, %52
  store i32 %53, ptr %18, align 4
  %54 = load ptr, ptr %17, align 8
  %55 = load ptr, ptr %17, align 8
  %56 = getelementptr inbounds %struct._zend_execute_data, ptr %55, i32 0, i32 3
  %57 = load ptr, ptr %56, align 8
  %58 = getelementptr inbounds %struct._zend_op_array, ptr %57, i32 0, i32 14
  %59 = load i32, ptr %58, align 8
  %60 = load ptr, ptr %17, align 8
  %61 = getelementptr inbounds %struct._zend_execute_data, ptr %60, i32 0, i32 3
  %62 = load ptr, ptr %61, align 8
  %63 = getelementptr inbounds %struct._zend_op_array, ptr %62, i32 0, i32 12
  %64 = load i32, ptr %63, align 8
  %65 = add i32 %59, %64
  %66 = add nsw i32 5, %65
  %67 = sext i32 %66 to i64
  %68 = getelementptr inbounds %struct._zval_struct, ptr %54, i64 %67
  store ptr %68, ptr %19, align 8
  br label %69

69:                                               ; preds = %120, %43
  %70 = load ptr, ptr %19, align 8
  store ptr %70, ptr %8, align 8
  %71 = load ptr, ptr %8, align 8
  %72 = getelementptr inbounds %struct._zval_struct, ptr %71, i32 0, i32 1
  %73 = getelementptr inbounds %struct.anon.0, ptr %72, i32 0, i32 1
  %74 = load i8, ptr %73, align 1
  %75 = zext i8 %74 to i32
  %76 = icmp ne i32 %75, 0
  br i1 %76, label %77, label %120

77:                                               ; preds = %69
  %78 = load ptr, ptr %8, align 8
  %79 = load ptr, ptr %78, align 8
  store ptr %79, ptr %9, align 8
  %80 = load ptr, ptr %9, align 8
  store ptr %80, ptr %7, align 8
  %81 = load ptr, ptr %7, align 8
  %82 = load i32, ptr %81, align 4
  %83 = icmp ugt i32 %82, 0
  call void @llvm.assume(i1 %83)
  %84 = load ptr, ptr %7, align 8
  %85 = load i32, ptr %84, align 4
  %86 = add i32 %85, -1
  store i32 %86, ptr %84, align 4
  %87 = icmp ne i32 %86, 0
  br i1 %87, label %90, label %88

88:                                               ; preds = %77
  %89 = load ptr, ptr %9, align 8
  call void @rc_dtor_func(ptr noundef %89) #4
  br label %119

90:                                               ; preds = %77
  %91 = load ptr, ptr %9, align 8
  store ptr %91, ptr %3, align 8
  %92 = load ptr, ptr %3, align 8
  %93 = getelementptr inbounds %struct._zend_refcounted_h, ptr %92, i32 0, i32 1
  %94 = load i32, ptr %93, align 4
  %95 = icmp eq i32 %94, 26
  br i1 %95, label %96, label %110

96:                                               ; preds = %90
  %97 = load ptr, ptr %3, align 8
  %98 = getelementptr inbounds %struct._zend_reference, ptr %97, i32 0, i32 1
  store ptr %98, ptr %4, align 8
  %99 = load ptr, ptr %4, align 8
  %100 = getelementptr inbounds %struct._zval_struct, ptr %99, i32 0, i32 1
  %101 = getelementptr inbounds %struct.anon.0, ptr %100, i32 0, i32 1
  %102 = load i8, ptr %101, align 1
  %103 = zext i8 %102 to i32
  %104 = and i32 %103, 2
  %105 = icmp ne i32 %104, 0
  br i1 %105, label %107, label %106

106:                                              ; preds = %96
  br label %118

107:                                              ; preds = %96
  %108 = load ptr, ptr %4, align 8
  %109 = load ptr, ptr %108, align 8
  store ptr %109, ptr %3, align 8
  br label %110

110:                                              ; preds = %107, %90
  %111 = load ptr, ptr %3, align 8
  %112 = getelementptr inbounds %struct._zend_refcounted_h, ptr %111, i32 0, i32 1
  %113 = load i32, ptr %112, align 4
  %114 = and i32 %113, -1008
  %115 = icmp eq i32 %114, 0
  br i1 %115, label %116, label %118

116:                                              ; preds = %110
  %117 = load ptr, ptr %3, align 8
  call void @gc_possible_root(ptr noundef %117) #4
  br label %118

118:                                              ; preds = %116, %110, %106
  br label %119

119:                                              ; preds = %118, %88
  br label %120

120:                                              ; preds = %119, %69
  %121 = load ptr, ptr %19, align 8
  %122 = getelementptr inbounds %struct._zval_struct, ptr %121, i32 1
  store ptr %122, ptr %19, align 8
  %123 = load i32, ptr %18, align 4
  %124 = add i32 %123, -1
  store i32 %124, ptr %18, align 4
  %125 = icmp ne i32 %124, 0
  br i1 %125, label %69, label %126

126:                                              ; preds = %120
  br label %127

127:                                              ; preds = %126, %37
  %128 = load i32, ptr %21, align 4
  %129 = and i32 %128, 2097152
  %130 = icmp ne i32 %129, 0
  %131 = xor i1 %130, true
  %132 = xor i1 %131, true
  %133 = zext i1 %132 to i32
  %134 = sext i32 %133 to i64
  %135 = icmp ne i64 %134, 0
  br i1 %135, label %136, label %161

136:                                              ; preds = %127
  %137 = load ptr, ptr %22, align 8
  %138 = getelementptr inbounds %struct._zend_execute_data, ptr %137, i32 0, i32 4
  %139 = getelementptr inbounds %struct._zval_struct, ptr %138, i32 0, i32 0
  %140 = load ptr, ptr %139, align 8
  store ptr %140, ptr %14, align 8
  %141 = load ptr, ptr %14, align 8
  store ptr %141, ptr %6, align 8
  %142 = load ptr, ptr %6, align 8
  %143 = load i32, ptr %142, align 4
  %144 = icmp ugt i32 %143, 0
  call void @llvm.assume(i1 %144)
  %145 = load ptr, ptr %6, align 8
  %146 = load i32, ptr %145, align 4
  %147 = add i32 %146, -1
  store i32 %147, ptr %145, align 4
  %148 = icmp eq i32 %147, 0
  br i1 %148, label %149, label %151

149:                                              ; preds = %136
  %150 = load ptr, ptr %14, align 8
  call void @zend_objects_store_del(ptr noundef %150) #4
  br label %160

151:                                              ; preds = %136
  %152 = load ptr, ptr %14, align 8
  %153 = getelementptr inbounds %struct._zend_refcounted_h, ptr %152, i32 0, i32 1
  %154 = load i32, ptr %153, align 4
  %155 = and i32 %154, -1008
  %156 = icmp eq i32 %155, 0
  br i1 %156, label %157, label %159

157:                                              ; preds = %151
  %158 = load ptr, ptr %14, align 8
  call void @gc_possible_root(ptr noundef %158) #4
  br label %159

159:                                              ; preds = %157, %151
  br label %160

160:                                              ; preds = %159, %149
  br label %196

161:                                              ; preds = %127
  %162 = load i32, ptr %21, align 4
  %163 = and i32 %162, 4194304
  %164 = icmp ne i32 %163, 0
  %165 = xor i1 %164, true
  %166 = xor i1 %165, true
  %167 = zext i1 %166 to i32
  %168 = sext i32 %167 to i64
  %169 = icmp ne i64 %168, 0
  br i1 %169, label %170, label %195

170:                                              ; preds = %161
  %171 = load ptr, ptr %22, align 8
  %172 = getelementptr inbounds %struct._zend_execute_data, ptr %171, i32 0, i32 3
  %173 = load ptr, ptr %172, align 8
  %174 = getelementptr inbounds i8, ptr %173, i64 -56
  store ptr %174, ptr %15, align 8
  %175 = load ptr, ptr %15, align 8
  store ptr %175, ptr %5, align 8
  %176 = load ptr, ptr %5, align 8
  %177 = load i32, ptr %176, align 4
  %178 = icmp ugt i32 %177, 0
  call void @llvm.assume(i1 %178)
  %179 = load ptr, ptr %5, align 8
  %180 = load i32, ptr %179, align 4
  %181 = add i32 %180, -1
  store i32 %181, ptr %179, align 4
  %182 = icmp eq i32 %181, 0
  br i1 %182, label %183, label %185

183:                                              ; preds = %170
  %184 = load ptr, ptr %15, align 8
  call void @zend_objects_store_del(ptr noundef %184) #4
  br label %194

185:                                              ; preds = %170
  %186 = load ptr, ptr %15, align 8
  %187 = getelementptr inbounds %struct._zend_refcounted_h, ptr %186, i32 0, i32 1
  %188 = load i32, ptr %187, align 4
  %189 = and i32 %188, -1008
  %190 = icmp eq i32 %189, 0
  br i1 %190, label %191, label %193

191:                                              ; preds = %185
  %192 = load ptr, ptr %15, align 8
  call void @gc_possible_root(ptr noundef %192) #4
  br label %193

193:                                              ; preds = %191, %185
  br label %194

194:                                              ; preds = %193, %183
  br label %195

195:                                              ; preds = %194, %161
  br label %196

196:                                              ; preds = %195, %160
  %197 = load i32, ptr %21, align 4
  %198 = and i32 %197, 134217728
  %199 = icmp ne i32 %198, 0
  %200 = xor i1 %199, true
  %201 = xor i1 %200, true
  %202 = zext i1 %201 to i32
  %203 = sext i32 %202 to i64
  %204 = icmp ne i64 %203, 0
  br i1 %204, label %205, label %209

205:                                              ; preds = %196
  %206 = load ptr, ptr %22, align 8
  %207 = getelementptr inbounds %struct._zend_execute_data, ptr %206, i32 0, i32 8
  %208 = load ptr, ptr %207, align 8
  call void @zend_free_extra_named_params(ptr noundef %208)
  br label %209

209:                                              ; preds = %205, %196
  %210 = load ptr, ptr %22, align 8
  store ptr %210, ptr %23, align 8
  %211 = load ptr, ptr %22, align 8
  %212 = getelementptr inbounds %struct._zend_execute_data, ptr %211, i32 0, i32 5
  %213 = load ptr, ptr %212, align 8
  store ptr %213, ptr %22, align 8
  %214 = load i32, ptr %21, align 4
  %215 = load ptr, ptr %23, align 8
  store i32 %214, ptr %10, align 4
  store ptr %215, ptr %11, align 8
  %216 = load i32, ptr %10, align 4
  %217 = and i32 %216, 262144
  %218 = icmp ne i32 %217, 0
  br i1 %218, label %219, label %235

219:                                              ; preds = %209
  %220 = load ptr, ptr getelementptr inbounds (%struct._zend_executor_globals, ptr @executor_globals, i32 0, i32 15), align 8
  store ptr %220, ptr %12, align 8
  %221 = load ptr, ptr %12, align 8
  %222 = getelementptr inbounds %struct._zend_vm_stack, ptr %221, i32 0, i32 2
  %223 = load ptr, ptr %222, align 8
  store ptr %223, ptr %13, align 8
  %224 = load ptr, ptr %11, align 8
  %225 = load ptr, ptr getelementptr inbounds (%struct._zend_executor_globals, ptr @executor_globals, i32 0, i32 15), align 8
  %226 = getelementptr inbounds %struct._zval_struct, ptr %225, i64 2
  %227 = icmp eq ptr %224, %226
  call void @llvm.assume(i1 %227)
  %228 = load ptr, ptr %13, align 8
  %229 = load ptr, ptr %228, align 8
  store ptr %229, ptr getelementptr inbounds (%struct._zend_executor_globals, ptr @executor_globals, i32 0, i32 13), align 8
  %230 = load ptr, ptr %13, align 8
  %231 = getelementptr inbounds %struct._zend_vm_stack, ptr %230, i32 0, i32 1
  %232 = load ptr, ptr %231, align 8
  store ptr %232, ptr getelementptr inbounds (%struct._zend_executor_globals, ptr @executor_globals, i32 0, i32 14), align 8
  %233 = load ptr, ptr %13, align 8
  store ptr %233, ptr getelementptr inbounds (%struct._zend_executor_globals, ptr @executor_globals, i32 0, i32 15), align 8
  %234 = load ptr, ptr %12, align 8
  call void @_efree(ptr noundef %234) #4
  br label %237

235:                                              ; preds = %209
  %236 = load ptr, ptr %11, align 8
  store ptr %236, ptr getelementptr inbounds (%struct._zend_executor_globals, ptr @executor_globals, i32 0, i32 13), align 8
  br label %237

237:                                              ; preds = %235, %219
  %238 = load ptr, ptr getelementptr inbounds (%struct._zend_executor_globals, ptr @executor_globals, i32 0, i32 50), align 8
  %239 = icmp ne ptr %238, null
  %240 = xor i1 %239, true
  %241 = xor i1 %240, true
  %242 = zext i1 %241 to i32
  %243 = sext i32 %242 to i64
  %244 = icmp ne i64 %243, 0
  br i1 %244, label %245, label %262

245:                                              ; preds = %237
  %246 = load ptr, ptr %22, align 8
  %247 = getelementptr inbounds %struct._zend_execute_data, ptr %246, i32 0, i32 0
  %248 = load ptr, ptr %247, align 8
  store ptr %248, ptr %24, align 8
  call void @zend_throw_exception_internal(ptr noundef null)
  %249 = load ptr, ptr %24, align 8
  %250 = getelementptr inbounds %struct._zend_op, ptr %249, i32 0, i32 9
  %251 = load i8, ptr %250, align 1
  %252 = zext i8 %251 to i32
  %253 = icmp ne i32 %252, 0
  br i1 %253, label %254, label %261

254:                                              ; preds = %245
  %255 = load ptr, ptr %22, align 8
  %256 = load ptr, ptr %24, align 8
  %257 = getelementptr inbounds %struct._zend_op, ptr %256, i32 0, i32 3
  %258 = load i32, ptr %257, align 8
  %259 = sext i32 %258 to i64
  %260 = getelementptr inbounds i8, ptr %255, i64 %259
  call void @zval_ptr_dtor(ptr noundef %260)
  br label %261

261:                                              ; preds = %254, %245
  store i32 2, ptr %20, align 4
  br label %267

262:                                              ; preds = %237
  %263 = load ptr, ptr %22, align 8
  %264 = getelementptr inbounds %struct._zend_execute_data, ptr %263, i32 0, i32 0
  %265 = load ptr, ptr %264, align 8
  %266 = getelementptr inbounds %struct._zend_op, ptr %265, i32 1
  store ptr %266, ptr %264, align 8
  store i32 2, ptr %20, align 4
  br label %267

267:                                              ; preds = %262, %261
  %268 = load i32, ptr %20, align 4
  ret i32 %268
}