; Function Attrs: nounwind uwtable
define hidden noundef i32 @zend_jit_leave_nested_func_helper(i32 noundef %0, ptr noundef %1) local_unnamed_addr #0 {
  %3 = and i32 %0, 1048576
  %.not = icmp eq i32 %3, 0
  br i1 %.not, label %7, label %4

4:                                                ; preds = %2
  %5 = getelementptr inbounds i8, ptr %1, i64 56
  %6 = load ptr, ptr %5, align 8
  tail call void @zend_clean_and_cache_symbol_table(ptr noundef %6) #6
  br label %7

7:                                                ; preds = %4, %2
  %8 = and i32 %0, 524288
  %.not65 = icmp eq i32 %8, 0
  br i1 %.not65, label %.loopexit, label %9

9:                                                ; preds = %7
  %10 = getelementptr inbounds i8, ptr %1, i64 44
  %11 = load i32, ptr %10, align 4
  %12 = getelementptr inbounds i8, ptr %1, i64 24
  %13 = load ptr, ptr %12, align 8
  %14 = getelementptr inbounds i8, ptr %13, i64 32
  %15 = load i32, ptr %14, align 8
  %16 = sub i32 %11, %15
  %17 = getelementptr inbounds i8, ptr %13, i64 80
  %18 = load i32, ptr %17, align 8
  %19 = getelementptr inbounds i8, ptr %13, i64 72
  %20 = load i32, ptr %19, align 8
  %21 = add i32 %20, %18
  %22 = sext i32 %21 to i64
  %23 = getelementptr %struct._zval_struct, ptr %1, i64 %22
  %24 = getelementptr i8, ptr %23, i64 80
  br label %25

25:                                               ; preds = %50, %9
  %.062 = phi ptr [ %24, %9 ], [ %51, %50 ]
  %.061 = phi i32 [ %16, %9 ], [ %52, %50 ]
  %26 = getelementptr inbounds i8, ptr %.062, i64 9
  %27 = load i8, ptr %26, align 1
  %.not66 = icmp eq i8 %27, 0
  br i1 %.not66, label %50, label %28

28:                                               ; preds = %25
  %29 = load ptr, ptr %.062, align 8
  %30 = load i32, ptr %29, align 4
  %31 = icmp ne i32 %30, 0
  tail call void @llvm.assume(i1 %31)
  %32 = add i32 %30, -1
  store i32 %32, ptr %29, align 4
  %.not67 = icmp eq i32 %32, 0
  br i1 %.not67, label %33, label %34

33:                                               ; preds = %28
  tail call void @rc_dtor_func(ptr noundef nonnull %29) #6
  br label %50

34:                                               ; preds = %28
  %35 = getelementptr inbounds i8, ptr %29, i64 4
  %36 = load i32, ptr %35, align 4
  %37 = icmp eq i32 %36, 26
  br i1 %37, label %38, label %45

38:                                               ; preds = %34
  %39 = getelementptr inbounds i8, ptr %29, i64 17
  %40 = load i8, ptr %39, align 1
  %41 = and i8 %40, 2
  %.not68 = icmp eq i8 %41, 0
  br i1 %.not68, label %50, label %42

42:                                               ; preds = %38
  %43 = getelementptr inbounds i8, ptr %29, i64 8
  %44 = load ptr, ptr %43, align 8
  %.phi.trans.insert = getelementptr inbounds i8, ptr %44, i64 4
  %.pre = load i32, ptr %.phi.trans.insert, align 4
  br label %45

45:                                               ; preds = %42, %34
  %46 = phi i32 [ %.pre, %42 ], [ %36, %34 ]
  %.0 = phi ptr [ %44, %42 ], [ %29, %34 ]
  %47 = and i32 %46, -1008
  %48 = icmp eq i32 %47, 0
  br i1 %48, label %49, label %50

49:                                               ; preds = %45
  tail call void @gc_possible_root(ptr noundef nonnull %.0) #6
  br label %50

50:                                               ; preds = %33, %38, %49, %45, %25
  %51 = getelementptr inbounds i8, ptr %.062, i64 16
  %52 = add i32 %.061, -1
  %.not69 = icmp eq i32 %52, 0
  br i1 %.not69, label %.loopexit, label %25

.loopexit:                                        ; preds = %50, %7
  %53 = and i32 %0, 2097152
  %.not70 = icmp eq i32 %53, 0
  br i1 %.not70, label %68, label %54

54:                                               ; preds = %.loopexit
  %55 = getelementptr inbounds i8, ptr %1, i64 32
  %56 = load ptr, ptr %55, align 8
  %57 = load i32, ptr %56, align 4
  %58 = icmp ne i32 %57, 0
  tail call void @llvm.assume(i1 %58)
  %59 = add i32 %57, -1
  store i32 %59, ptr %56, align 4
  %60 = icmp eq i32 %59, 0
  br i1 %60, label %61, label %62

61:                                               ; preds = %54
  tail call void @zend_objects_store_del(ptr noundef nonnull %56) #6
  br label %85

62:                                               ; preds = %54
  %63 = getelementptr inbounds i8, ptr %56, i64 4
  %64 = load i32, ptr %63, align 4
  %65 = and i32 %64, -1008
  %66 = icmp eq i32 %65, 0
  br i1 %66, label %67, label %85

67:                                               ; preds = %62
  tail call void @gc_possible_root(ptr noundef nonnull %56) #6
  br label %85

68:                                               ; preds = %.loopexit
  %69 = and i32 %0, 4194304
  %.not71 = icmp eq i32 %69, 0
  br i1 %.not71, label %85, label %70

70:                                               ; preds = %68
  %71 = getelementptr inbounds i8, ptr %1, i64 24
  %72 = load ptr, ptr %71, align 8
  %73 = getelementptr inbounds i8, ptr %72, i64 -56
  %74 = load i32, ptr %73, align 4
  %75 = icmp ne i32 %74, 0
  tail call void @llvm.assume(i1 %75)
  %76 = add i32 %74, -1
  store i32 %76, ptr %73, align 4
  %77 = icmp eq i32 %76, 0
  br i1 %77, label %78, label %79

78:                                               ; preds = %70
  tail call void @zend_objects_store_del(ptr noundef nonnull %73) #6
  br label %85

79:                                               ; preds = %70
  %80 = getelementptr inbounds i8, ptr %72, i64 -52
  %81 = load i32, ptr %80, align 4
  %82 = and i32 %81, -1008
  %83 = icmp eq i32 %82, 0
  br i1 %83, label %84, label %85

84:                                               ; preds = %79
  tail call void @gc_possible_root(ptr noundef nonnull %73) #6
  br label %85

85:                                               ; preds = %68, %79, %84, %78, %61, %67, %62
  %86 = and i32 %0, 134217728
  %.not72 = icmp eq i32 %86, 0
  br i1 %.not72, label %90, label %87

87:                                               ; preds = %85
  %88 = getelementptr inbounds i8, ptr %1, i64 72
  %89 = load ptr, ptr %88, align 8
  tail call void @zend_free_extra_named_params(ptr noundef %89) #6
  br label %90

90:                                               ; preds = %87, %85
  %91 = getelementptr inbounds i8, ptr %1, i64 48
  %92 = load ptr, ptr %91, align 8
  %93 = and i32 %0, 262144
  %.not73 = icmp eq i32 %93, 0
  br i1 %.not73, label %103, label %94

94:                                               ; preds = %90
  %95 = load ptr, ptr getelementptr inbounds (%struct._zend_executor_globals, ptr @executor_globals, i64 0, i32 15), align 8
  %96 = getelementptr inbounds i8, ptr %95, i64 16
  %97 = load ptr, ptr %96, align 8
  %98 = getelementptr inbounds i8, ptr %95, i64 32
  %99 = icmp eq ptr %98, %1
  tail call void @llvm.assume(i1 %99)
  %100 = load ptr, ptr %97, align 8
  store ptr %100, ptr getelementptr inbounds (%struct._zend_executor_globals, ptr @executor_globals, i64 0, i32 13), align 8
  %101 = getelementptr inbounds i8, ptr %97, i64 8
  %102 = load ptr, ptr %101, align 8
  store ptr %102, ptr getelementptr inbounds (%struct._zend_executor_globals, ptr @executor_globals, i64 0, i32 14), align 8
  store ptr %97, ptr getelementptr inbounds (%struct._zend_executor_globals, ptr @executor_globals, i64 0, i32 15), align 8
  tail call void @_efree(ptr noundef %95) #6
  br label %104

103:                                              ; preds = %90
  store ptr %1, ptr getelementptr inbounds (%struct._zend_executor_globals, ptr @executor_globals, i64 0, i32 13), align 8
  br label %104

104:                                              ; preds = %103, %94
  %105 = load ptr, ptr getelementptr inbounds (%struct._zend_executor_globals, ptr @executor_globals, i64 0, i32 50), align 8
  %.not74 = icmp eq ptr %105, null
  %106 = load ptr, ptr %92, align 8
  br i1 %.not74, label %115, label %107

107:                                              ; preds = %104
  tail call void @zend_throw_exception_internal(ptr noundef null) #6
  %108 = getelementptr inbounds i8, ptr %106, i64 31
  %109 = load i8, ptr %108, align 1
  %.not75 = icmp eq i8 %109, 0
  br i1 %.not75, label %117, label %110

110:                                              ; preds = %107
  %111 = getelementptr inbounds i8, ptr %106, i64 16
  %112 = load i32, ptr %111, align 8
  %113 = sext i32 %112 to i64
  %114 = getelementptr inbounds i8, ptr %92, i64 %113
  tail call void @zval_ptr_dtor(ptr noundef nonnull %114) #6
  br label %117

115:                                              ; preds = %104
  %116 = getelementptr inbounds i8, ptr %106, i64 32
  store ptr %116, ptr %92, align 8
  br label %117

117:                                              ; preds = %107, %110, %115
  ret i32 2
}